target datalayout = "e-m:e-p270:32:32-p271:32:32-p272:64:64-i64:64-i128:128-f80:128-n8:16:32:64-S128"
target triple = "x86_64-pc-linux-gnu"

@.str = private unnamed_addr constant [10 x i8] c"_NO_ERROR\00", align 1
@.str.1 = private unnamed_addr constant [9 x i8] c"_SUCCESS\00", align 1
@.str.2 = private unnamed_addr constant [18 x i8] c"_NEEDS_MORE_INPUT\00", align 1
@.str.3 = private unnamed_addr constant [19 x i8] c"_NEEDS_MORE_OUTPUT\00", align 1
@.str.4 = private unnamed_addr constant [31 x i8] c"_ERROR_FORMAT_EXUBERANT_NIBBLE\00", align 1
@.str.5 = private unnamed_addr constant [23 x i8] c"_ERROR_FORMAT_RESERVED\00", align 1
@.str.6 = private unnamed_addr constant [36 x i8] c"_ERROR_FORMAT_EXUBERANT_META_NIBBLE\00", align 1
@.str.7 = private unnamed_addr constant [38 x i8] c"_ERROR_FORMAT_SIMPLE_HUFFMAN_ALPHABET\00", align 1
@.str.8 = private unnamed_addr constant [34 x i8] c"_ERROR_FORMAT_SIMPLE_HUFFMAN_SAME\00", align 1
@.str.9 = private unnamed_addr constant [23 x i8] c"_ERROR_FORMAT_CL_SPACE\00", align 1
@.str.10 = private unnamed_addr constant [28 x i8] c"_ERROR_FORMAT_HUFFMAN_SPACE\00", align 1
@.str.11 = private unnamed_addr constant [33 x i8] c"_ERROR_FORMAT_CONTEXT_MAP_REPEAT\00", align 1
@.str.12 = private unnamed_addr constant [29 x i8] c"_ERROR_FORMAT_BLOCK_LENGTH_1\00", align 1
@.str.13 = private unnamed_addr constant [29 x i8] c"_ERROR_FORMAT_BLOCK_LENGTH_2\00", align 1
@.str.14 = private unnamed_addr constant [24 x i8] c"_ERROR_FORMAT_TRANSFORM\00", align 1
@.str.15 = private unnamed_addr constant [25 x i8] c"_ERROR_FORMAT_DICTIONARY\00", align 1
@.str.16 = private unnamed_addr constant [26 x i8] c"_ERROR_FORMAT_WINDOW_BITS\00", align 1
@.str.17 = private unnamed_addr constant [24 x i8] c"_ERROR_FORMAT_PADDING_1\00", align 1
@.str.18 = private unnamed_addr constant [24 x i8] c"_ERROR_FORMAT_PADDING_2\00", align 1
@.str.19 = private unnamed_addr constant [23 x i8] c"_ERROR_FORMAT_DISTANCE\00", align 1
@.str.20 = private unnamed_addr constant [27 x i8] c"_ERROR_COMPOUND_DICTIONARY\00", align 1
@.str.21 = private unnamed_addr constant [26 x i8] c"_ERROR_DICTIONARY_NOT_SET\00", align 1
@.str.22 = private unnamed_addr constant [25 x i8] c"_ERROR_INVALID_ARGUMENTS\00", align 1
@.str.23 = private unnamed_addr constant [27 x i8] c"_ERROR_ALLOC_CONTEXT_MODES\00", align 1
@.str.24 = private unnamed_addr constant [25 x i8] c"_ERROR_ALLOC_TREE_GROUPS\00", align 1
@.str.25 = private unnamed_addr constant [25 x i8] c"_ERROR_ALLOC_CONTEXT_MAP\00", align 1
@.str.26 = private unnamed_addr constant [27 x i8] c"_ERROR_ALLOC_RING_BUFFER_1\00", align 1
@.str.27 = private unnamed_addr constant [27 x i8] c"_ERROR_ALLOC_RING_BUFFER_2\00", align 1
@.str.28 = private unnamed_addr constant [30 x i8] c"_ERROR_ALLOC_BLOCK_TYPE_TREES\00", align 1
@.str.29 = private unnamed_addr constant [19 x i8] c"_ERROR_UNREACHABLE\00", align 1
@.str.30 = private unnamed_addr constant [8 x i8] c"INVALID\00", align 1

; Function Attrs: nounwind uwtable
define ptr @BrotliDecoderErrorString(i32 noundef %0) #0 {
  %2 = alloca ptr, align 8
  %3 = alloca i32, align 4
  store i32 %0, ptr %3, align 4, !tbaa !8
  %4 = load i32, ptr %3, align 4, !tbaa !8
  switch i32 %4, label %35 [
    i32 0, label %5
    i32 1, label %6
    i32 2, label %7
    i32 3, label %8
    i32 -1, label %9
    i32 -2, label %10
    i32 -3, label %11
    i32 -4, label %12
    i32 -5, label %13
    i32 -6, label %14
    i32 -7, label %15
    i32 -8, label %16
    i32 -9, label %17
    i32 -10, label %18
    i32 -11, label %19
    i32 -12, label %20
    i32 -13, label %21
    i32 -14, label %22
    i32 -15, label %23
    i32 -16, label %24
    i32 -18, label %25
    i32 -19, label %26
    i32 -20, label %27
    i32 -21, label %28
    i32 -22, label %29
    i32 -25, label %30
    i32 -26, label %31
    i32 -27, label %32
    i32 -30, label %33
    i32 -31, label %34
  ]

5:                                                ; preds = %1
  store ptr @.str, ptr %2, align 8
  br label %36

6:                                                ; preds = %1
  store ptr @.str.1, ptr %2, align 8
  br label %36

7:                                                ; preds = %1
  store ptr @.str.2, ptr %2, align 8
  br label %36

8:                                                ; preds = %1
  store ptr @.str.3, ptr %2, align 8
  br label %36

9:                                                ; preds = %1
  store ptr @.str.4, ptr %2, align 8
  br label %36

10:                                               ; preds = %1
  store ptr @.str.5, ptr %2, align 8
  br label %36

11:                                               ; preds = %1
  store ptr @.str.6, ptr %2, align 8
  br label %36

12:                                               ; preds = %1
  store ptr @.str.7, ptr %2, align 8
  br label %36

13:                                               ; preds = %1
  store ptr @.str.8, ptr %2, align 8
  br label %36

14:                                               ; preds = %1
  store ptr @.str.9, ptr %2, align 8
  br label %36

15:                                               ; preds = %1
  store ptr @.str.10, ptr %2, align 8
  br label %36

16:                                               ; preds = %1
  store ptr @.str.11, ptr %2, align 8
  br label %36

17:                                               ; preds = %1
  store ptr @.str.12, ptr %2, align 8
  br label %36

18:                                               ; preds = %1
  store ptr @.str.13, ptr %2, align 8
  br label %36

19:                                               ; preds = %1
  store ptr @.str.14, ptr %2, align 8
  br label %36

20:                                               ; preds = %1
  store ptr @.str.15, ptr %2, align 8
  br label %36

21:                                               ; preds = %1
  store ptr @.str.16, ptr %2, align 8
  br label %36

22:                                               ; preds = %1
  store ptr @.str.17, ptr %2, align 8
  br label %36

23:                                               ; preds = %1
  store ptr @.str.18, ptr %2, align 8
  br label %36

24:                                               ; preds = %1
  store ptr @.str.19, ptr %2, align 8
  br label %36

25:                                               ; preds = %1
  store ptr @.str.20, ptr %2, align 8
  br label %36

26:                                               ; preds = %1
  store ptr @.str.21, ptr %2, align 8
  br label %36

27:                                               ; preds = %1
  store ptr @.str.22, ptr %2, align 8
  br label %36

28:                                               ; preds = %1
  store ptr @.str.23, ptr %2, align 8
  br label %36

29:                                               ; preds = %1
  store ptr @.str.24, ptr %2, align 8
  br label %36

30:                                               ; preds = %1
  store ptr @.str.25, ptr %2, align 8
  br label %36

31:                                               ; preds = %1
  store ptr @.str.26, ptr %2, align 8
  br label %36

32:                                               ; preds = %1
  store ptr @.str.27, ptr %2, align 8
  br label %36

33:                                               ; preds = %1
  store ptr @.str.28, ptr %2, align 8
  br label %36

34:                                               ; preds = %1
  store ptr @.str.29, ptr %2, align 8
  br label %36

35:                                               ; preds = %1
  store ptr @.str.30, ptr %2, align 8
  br label %36

36:                                               ; preds = %35, %34, %33, %32, %31, %30, %29, %28, %27, %26, %25, %24, %23, %22, %21, %20, %19, %18, %17, %16, %15, %14, %13, %12, %11, %10, %9, %8, %7, %6, %5
  %37 = load ptr, ptr %2, align 8
  ret ptr %37
}